target datalayout = "e-m:e-p270:32:32-p271:32:32-p272:64:64-i64:64-i128:128-f80:128-n8:16:32:64-S128"
target triple = "x86_64-pc-linux-gnu"

%struct.mbedtls_gcm_context = type { %struct.mbedtls_cipher_context_t, [16 x [2 x i64]], i64, i64, [16 x i8], [16 x i8], [16 x i8], i8, i8 }
%struct.mbedtls_cipher_context_t = type { ptr, i32, i32, ptr, ptr, [16 x i8], i64, [16 x i8], i64, ptr, ptr }

; Function Attrs: alwaysinline nounwind uwtable
define internal void @mbedtls_put_unaligned_uint64(ptr noundef %0, i64 noundef %1) #6 {
  %3 = alloca ptr, align 8
  %4 = alloca i64, align 8
  store ptr %0, ptr %3, align 8, !tbaa !30
  store i64 %1, ptr %4, align 8, !tbaa !14
  %5 = load ptr, ptr %3, align 8, !tbaa !30
  call void @llvm.memcpy.p0.p0.i64(ptr align 1 %5, ptr align 8 %4, i64 8, i1 false)
  ret void
}

; Function Attrs: alwaysinline nounwind uwtable
define internal i64 @mbedtls_get_unaligned_uint64(ptr noundef %0) #6 {
  %2 = alloca ptr, align 8
  %3 = alloca i64, align 8
  store ptr %0, ptr %2, align 8, !tbaa !30
  call void @llvm.lifetime.start.p0(i64 8, ptr %3) #9
  %4 = load ptr, ptr %2, align 8, !tbaa !30
  call void @llvm.memcpy.p0.p0.i64(ptr align 8 %3, ptr align 1 %4, i64 8, i1 false)
  %5 = load i64, ptr %3, align 8, !tbaa !14
  call void @llvm.lifetime.end.p0(i64 8, ptr %3) #9
  ret i64 %5
}

; Function Attrs: alwaysinline nounwind uwtable
define internal void @mbedtls_xor(ptr noundef %0, ptr noundef %1, ptr noundef %2, i64 noundef %3) #6 {
  %5 = alloca ptr, align 8
  %6 = alloca ptr, align 8
  %7 = alloca ptr, align 8
  %8 = alloca i64, align 8
  %9 = alloca i64, align 8
  %10 = alloca i64, align 8
  store ptr %0, ptr %5, align 8, !tbaa !10
  store ptr %1, ptr %6, align 8, !tbaa !10
  store ptr %2, ptr %7, align 8, !tbaa !10
  store i64 %3, ptr %8, align 8, !tbaa !14
  call void @llvm.lifetime.start.p0(i64 8, ptr %9) #9
  store i64 0, ptr %9, align 8, !tbaa !14
  br label %11

11:                                               ; preds = %30, %4
  %12 = load i64, ptr %9, align 8, !tbaa !14
  %13 = add i64 %12, 8
  %14 = load i64, ptr %8, align 8, !tbaa !14
  %15 = icmp ule i64 %13, %14
  br i1 %15, label %16, label %33

16:                                               ; preds = %11
  call void @llvm.lifetime.start.p0(i64 8, ptr %10) #9
  %17 = load ptr, ptr %6, align 8, !tbaa !10
  %18 = load i64, ptr %9, align 8, !tbaa !14
  %19 = getelementptr inbounds nuw i8, ptr %17, i64 %18
  %20 = call i64 @mbedtls_get_unaligned_uint64(ptr noundef %19)
  %21 = load ptr, ptr %7, align 8, !tbaa !10
  %22 = load i64, ptr %9, align 8, !tbaa !14
  %23 = getelementptr inbounds nuw i8, ptr %21, i64 %22
  %24 = call i64 @mbedtls_get_unaligned_uint64(ptr noundef %23)
  %25 = xor i64 %20, %24
  store i64 %25, ptr %10, align 8, !tbaa !14
  %26 = load ptr, ptr %5, align 8, !tbaa !10
  %27 = load i64, ptr %9, align 8, !tbaa !14
  %28 = getelementptr inbounds nuw i8, ptr %26, i64 %27
  %29 = load i64, ptr %10, align 8, !tbaa !14
  call void @mbedtls_put_unaligned_uint64(ptr noundef %28, i64 noundef %29)
  call void @llvm.lifetime.end.p0(i64 8, ptr %10) #9
  br label %30

30:                                               ; preds = %16
  %31 = load i64, ptr %9, align 8, !tbaa !14
  %32 = add i64 %31, 8
  store i64 %32, ptr %9, align 8, !tbaa !14
  br label %11, !llvm.loop !31

33:                                               ; preds = %11
  br label %34

34:                                               ; preds = %54, %33
  %35 = load i64, ptr %9, align 8, !tbaa !14
  %36 = load i64, ptr %8, align 8, !tbaa !14
  %37 = icmp ult i64 %35, %36
  br i1 %37, label %38, label %57

38:                                               ; preds = %34
  %39 = load ptr, ptr %6, align 8, !tbaa !10
  %40 = load i64, ptr %9, align 8, !tbaa !14
  %41 = getelementptr inbounds nuw i8, ptr %39, i64 %40
  %42 = load i8, ptr %41, align 1, !tbaa !28
  %43 = zext i8 %42 to i32
  %44 = load ptr, ptr %7, align 8, !tbaa !10
  %45 = load i64, ptr %9, align 8, !tbaa !14
  %46 = getelementptr inbounds nuw i8, ptr %44, i64 %45
  %47 = load i8, ptr %46, align 1, !tbaa !28
  %48 = zext i8 %47 to i32
  %49 = xor i32 %43, %48
  %50 = trunc i32 %49 to i8
  %51 = load ptr, ptr %5, align 8, !tbaa !10
  %52 = load i64, ptr %9, align 8, !tbaa !14
  %53 = getelementptr inbounds nuw i8, ptr %51, i64 %52
  store i8 %50, ptr %53, align 1, !tbaa !28
  br label %54

54:                                               ; preds = %38
  %55 = load i64, ptr %9, align 8, !tbaa !14
  %56 = add i64 %55, 1
  store i64 %56, ptr %9, align 8, !tbaa !14
  br label %34, !llvm.loop !32

57:                                               ; preds = %34
  call void @llvm.lifetime.end.p0(i64 8, ptr %9) #9
  ret void
}

; Function Attrs: nounwind uwtable
define hidden i32 @mbedtls_gcm_update_ad(ptr noundef %0, ptr noundef %1, i64 noundef %2) #0 {
  %4 = alloca i32, align 4
  %5 = alloca ptr, align 8
  %6 = alloca ptr, align 8
  %7 = alloca i64, align 8
  %8 = alloca ptr, align 8
  %9 = alloca i64, align 8
  %10 = alloca i64, align 8
  %11 = alloca i64, align 8
  %12 = alloca i32, align 4
  store ptr %0, ptr %5, align 8, !tbaa !3
  store ptr %1, ptr %6, align 8, !tbaa !10
  store i64 %2, ptr %7, align 8, !tbaa !14
  call void @llvm.lifetime.start.p0(i64 8, ptr %8) #9
  call void @llvm.lifetime.start.p0(i64 8, ptr %9) #9
  call void @llvm.lifetime.start.p0(i64 8, ptr %10) #9
  call void @llvm.lifetime.start.p0(i64 8, ptr %11) #9
  %13 = load ptr, ptr %5, align 8, !tbaa !3
  %14 = getelementptr inbounds nuw %struct.mbedtls_gcm_context, ptr %13, i32 0, i32 3
  %15 = load i64, ptr %14, align 8, !tbaa !27
  %16 = load i64, ptr %7, align 8, !tbaa !14
  %17 = add i64 %15, %16
  store i64 %17, ptr %11, align 8, !tbaa !14
  %18 = load i64, ptr %11, align 8, !tbaa !14
  %19 = load ptr, ptr %5, align 8, !tbaa !3
  %20 = getelementptr inbounds nuw %struct.mbedtls_gcm_context, ptr %19, i32 0, i32 3
  %21 = load i64, ptr %20, align 8, !tbaa !27
  %22 = icmp ult i64 %18, %21
  br i1 %22, label %27, label %23

23:                                               ; preds = %3
  %24 = load i64, ptr %11, align 8, !tbaa !14
  %25 = lshr i64 %24, 61
  %26 = icmp ne i64 %25, 0
  br i1 %26, label %27, label %28

27:                                               ; preds = %23, %3
  store i32 -20, ptr %4, align 4
  store i32 1, ptr %12, align 4
  br label %122

28:                                               ; preds = %23
  %29 = load ptr, ptr %5, align 8, !tbaa !3
  %30 = getelementptr inbounds nuw %struct.mbedtls_gcm_context, ptr %29, i32 0, i32 3
  %31 = load i64, ptr %30, align 8, !tbaa !27
  %32 = urem i64 %31, 16
  store i64 %32, ptr %10, align 8, !tbaa !14
  %33 = load ptr, ptr %6, align 8, !tbaa !10
  store ptr %33, ptr %8, align 8, !tbaa !10
  %34 = load i64, ptr %10, align 8, !tbaa !14
  %35 = icmp ne i64 %34, 0
  br i1 %35, label %36, label %81

36:                                               ; preds = %28
  %37 = load i64, ptr %10, align 8, !tbaa !14
  %38 = sub i64 16, %37
  store i64 %38, ptr %9, align 8, !tbaa !14
  %39 = load i64, ptr %9, align 8, !tbaa !14
  %40 = load i64, ptr %7, align 8, !tbaa !14
  %41 = icmp ugt i64 %39, %40
  br i1 %41, label %42, label %44

42:                                               ; preds = %36
  %43 = load i64, ptr %7, align 8, !tbaa !14
  store i64 %43, ptr %9, align 8, !tbaa !14
  br label %44

44:                                               ; preds = %42, %36
  %45 = load ptr, ptr %5, align 8, !tbaa !3
  %46 = getelementptr inbounds nuw %struct.mbedtls_gcm_context, ptr %45, i32 0, i32 6
  %47 = getelementptr inbounds [16 x i8], ptr %46, i64 0, i64 0
  %48 = load i64, ptr %10, align 8, !tbaa !14
  %49 = getelementptr inbounds nuw i8, ptr %47, i64 %48
  %50 = load ptr, ptr %5, align 8, !tbaa !3
  %51 = getelementptr inbounds nuw %struct.mbedtls_gcm_context, ptr %50, i32 0, i32 6
  %52 = getelementptr inbounds [16 x i8], ptr %51, i64 0, i64 0
  %53 = load i64, ptr %10, align 8, !tbaa !14
  %54 = getelementptr inbounds nuw i8, ptr %52, i64 %53
  %55 = load ptr, ptr %8, align 8, !tbaa !10
  %56 = load i64, ptr %9, align 8, !tbaa !14
  call void @mbedtls_xor(ptr noundef %49, ptr noundef %54, ptr noundef %55, i64 noundef %56)
  %57 = load i64, ptr %10, align 8, !tbaa !14
  %58 = load i64, ptr %9, align 8, !tbaa !14
  %59 = add i64 %57, %58
  %60 = icmp eq i64 %59, 16
  br i1 %60, label %61, label %69

61:                                               ; preds = %44
  %62 = load ptr, ptr %5, align 8, !tbaa !3
  %63 = load ptr, ptr %5, align 8, !tbaa !3
  %64 = getelementptr inbounds nuw %struct.mbedtls_gcm_context, ptr %63, i32 0, i32 6
  %65 = getelementptr inbounds [16 x i8], ptr %64, i64 0, i64 0
  %66 = load ptr, ptr %5, align 8, !tbaa !3
  %67 = getelementptr inbounds nuw %struct.mbedtls_gcm_context, ptr %66, i32 0, i32 6
  %68 = getelementptr inbounds [16 x i8], ptr %67, i64 0, i64 0
  call void @gcm_mult(ptr noundef %62, ptr noundef %65, ptr noundef %68)
  br label %69

69:                                               ; preds = %61, %44
  %70 = load i64, ptr %9, align 8, !tbaa !14
  %71 = load ptr, ptr %5, align 8, !tbaa !3
  %72 = getelementptr inbounds nuw %struct.mbedtls_gcm_context, ptr %71, i32 0, i32 3
  %73 = load i64, ptr %72, align 8, !tbaa !27
  %74 = add i64 %73, %70
  store i64 %74, ptr %72, align 8, !tbaa !27
  %75 = load i64, ptr %9, align 8, !tbaa !14
  %76 = load i64, ptr %7, align 8, !tbaa !14
  %77 = sub i64 %76, %75
  store i64 %77, ptr %7, align 8, !tbaa !14
  %78 = load i64, ptr %9, align 8, !tbaa !14
  %79 = load ptr, ptr %8, align 8, !tbaa !10
  %80 = getelementptr inbounds nuw i8, ptr %79, i64 %78
  store ptr %80, ptr %8, align 8, !tbaa !10
  br label %81

81:                                               ; preds = %69, %28
  %82 = load i64, ptr %7, align 8, !tbaa !14
  %83 = load ptr, ptr %5, align 8, !tbaa !3
  %84 = getelementptr inbounds nuw %struct.mbedtls_gcm_context, ptr %83, i32 0, i32 3
  %85 = load i64, ptr %84, align 8, !tbaa !27
  %86 = add i64 %85, %82
  store i64 %86, ptr %84, align 8, !tbaa !27
  br label %87

87:                                               ; preds = %90, %81
  %88 = load i64, ptr %7, align 8, !tbaa !14
  %89 = icmp uge i64 %88, 16
  br i1 %89, label %90, label %109

90:                                               ; preds = %87
  %91 = load ptr, ptr %5, align 8, !tbaa !3
  %92 = getelementptr inbounds nuw %struct.mbedtls_gcm_context, ptr %91, i32 0, i32 6
  %93 = getelementptr inbounds [16 x i8], ptr %92, i64 0, i64 0
  %94 = load ptr, ptr %5, align 8, !tbaa !3
  %95 = getelementptr inbounds nuw %struct.mbedtls_gcm_context, ptr %94, i32 0, i32 6
  %96 = getelementptr inbounds [16 x i8], ptr %95, i64 0, i64 0
  %97 = load ptr, ptr %8, align 8, !tbaa !10
  call void @mbedtls_xor(ptr noundef %93, ptr noundef %96, ptr noundef %97, i64 noundef 16)
  %98 = load ptr, ptr %5, align 8, !tbaa !3
  %99 = load ptr, ptr %5, align 8, !tbaa !3
  %100 = getelementptr inbounds nuw %struct.mbedtls_gcm_context, ptr %99, i32 0, i32 6
  %101 = getelementptr inbounds [16 x i8], ptr %100, i64 0, i64 0
  %102 = load ptr, ptr %5, align 8, !tbaa !3
  %103 = getelementptr inbounds nuw %struct.mbedtls_gcm_context, ptr %102, i32 0, i32 6
  %104 = getelementptr inbounds [16 x i8], ptr %103, i64 0, i64 0
  call void @gcm_mult(ptr noundef %98, ptr noundef %101, ptr noundef %104)
  %105 = load i64, ptr %7, align 8, !tbaa !14
  %106 = sub i64 %105, 16
  store i64 %106, ptr %7, align 8, !tbaa !14
  %107 = load ptr, ptr %8, align 8, !tbaa !10
  %108 = getelementptr inbounds i8, ptr %107, i64 16
  store ptr %108, ptr %8, align 8, !tbaa !10
  br label %87, !llvm.loop !33

109:                                              ; preds = %87
  %110 = load i64, ptr %7, align 8, !tbaa !14
  %111 = icmp ugt i64 %110, 0
  br i1 %111, label %112, label %121

112:                                              ; preds = %109
  %113 = load ptr, ptr %5, align 8, !tbaa !3
  %114 = getelementptr inbounds nuw %struct.mbedtls_gcm_context, ptr %113, i32 0, i32 6
  %115 = getelementptr inbounds [16 x i8], ptr %114, i64 0, i64 0
  %116 = load ptr, ptr %5, align 8, !tbaa !3
  %117 = getelementptr inbounds nuw %struct.mbedtls_gcm_context, ptr %116, i32 0, i32 6
  %118 = getelementptr inbounds [16 x i8], ptr %117, i64 0, i64 0
  %119 = load ptr, ptr %8, align 8, !tbaa !10
  %120 = load i64, ptr %7, align 8, !tbaa !14
  call void @mbedtls_xor(ptr noundef %115, ptr noundef %118, ptr noundef %119, i64 noundef %120)
  br label %121

121:                                              ; preds = %112, %109
  store i32 0, ptr %4, align 4
  store i32 1, ptr %12, align 4
  br label %122

122:                                              ; preds = %121, %27
  call void @llvm.lifetime.end.p0(i64 8, ptr %11) #9
  call void @llvm.lifetime.end.p0(i64 8, ptr %10) #9
  call void @llvm.lifetime.end.p0(i64 8, ptr %9) #9
  call void @llvm.lifetime.end.p0(i64 8, ptr %8) #9
  %123 = load i32, ptr %4, align 4
  ret i32 %123
}