; Function Attrs: nounwind uwtable
define hidden range(i32 -20, 1) i32 @mbedtls_gcm_update_ad(ptr noundef %0, ptr noundef readonly captures(none) %1, i64 noundef %2) local_unnamed_addr #2 {
  %4 = getelementptr inbounds nuw i8, ptr %0, i64 360
  %5 = load i64, ptr %4, align 8, !tbaa !27
  %6 = add i64 %5, %2
  %7 = icmp uge i64 %6, %5
  %.not = icmp ult i64 %6, 2305843009213693952
  %or.cond = and i1 %7, %.not
  br i1 %or.cond, label %8, label %mbedtls_xor.exit

8:                                                ; preds = %3
  %9 = and i64 %5, 15
  %.not54 = icmp eq i64 %9, 0
  br i1 %.not54, label %33, label %10

10:                                               ; preds = %8
  %11 = sub nuw nsw i64 16, %9
  %spec.select = tail call i64 @llvm.umin.i64(i64 %11, i64 %2)
  %12 = getelementptr inbounds nuw i8, ptr %0, i64 400
  %13 = getelementptr inbounds nuw i8, ptr %12, i64 %9
  %.not.i6171 = icmp samesign ult i64 %spec.select, 8
  br i1 %.not.i6171, label %.preheader70, label %.lr.ph

.preheader70:                                     ; preds = %.lr.ph, %10
  %.0.i60.lcssa = phi i64 [ 0, %10 ], [ %15, %.lr.ph ]
  %14 = icmp samesign ult i64 %.0.i60.lcssa, %spec.select
  br i1 %14, label %.lr.ph74, label %mbedtls_xor.exit63

.lr.ph:                                           ; preds = %10, %.lr.ph
  %15 = phi i64 [ %19, %.lr.ph ], [ 8, %10 ]
  %.0.i6072 = phi i64 [ %15, %.lr.ph ], [ 0, %10 ]
  %16 = getelementptr inbounds nuw i8, ptr %13, i64 %.0.i6072
  %.0.copyload.i64 = load i64, ptr %16, align 1
  %17 = getelementptr inbounds nuw i8, ptr %1, i64 %.0.i6072
  %.0.copyload.i = load i64, ptr %17, align 1
  %18 = xor i64 %.0.copyload.i, %.0.copyload.i64
  store i64 %18, ptr %16, align 1
  %19 = add nuw nsw i64 %15, 8
  %.not.i61 = icmp samesign ugt i64 %19, %spec.select
  br i1 %.not.i61, label %.preheader70, label %.lr.ph, !llvm.loop !21

.lr.ph74:                                         ; preds = %.preheader70, %.lr.ph74
  %.1.i6273 = phi i64 [ %25, %.lr.ph74 ], [ %.0.i60.lcssa, %.preheader70 ]
  %20 = getelementptr inbounds nuw i8, ptr %13, i64 %.1.i6273
  %21 = load i8, ptr %20, align 1, !tbaa !14
  %22 = getelementptr inbounds nuw i8, ptr %1, i64 %.1.i6273
  %23 = load i8, ptr %22, align 1, !tbaa !14
  %24 = xor i8 %23, %21
  store i8 %24, ptr %20, align 1, !tbaa !14
  %25 = add nuw nsw i64 %.1.i6273, 1
  %exitcond.not = icmp eq i64 %25, %spec.select
  br i1 %exitcond.not, label %mbedtls_xor.exit63, label %.lr.ph74, !llvm.loop !22

mbedtls_xor.exit63:                               ; preds = %.lr.ph74, %.preheader70
  %26 = add nuw nsw i64 %spec.select, %9
  %27 = icmp eq i64 %26, 16
  br i1 %27, label %28, label %29

28:                                               ; preds = %mbedtls_xor.exit63
  tail call fastcc void @gcm_mult(ptr noundef nonnull %0, ptr noundef nonnull %12, ptr noundef nonnull %12)
  %.pre = load i64, ptr %4, align 8, !tbaa !27
  br label %29

29:                                               ; preds = %28, %mbedtls_xor.exit63
  %30 = phi i64 [ %.pre, %28 ], [ %5, %mbedtls_xor.exit63 ]
  %31 = sub i64 %2, %spec.select
  %32 = getelementptr inbounds nuw i8, ptr %1, i64 %spec.select
  %.pre94 = add i64 %30, %2
  br label %33

33:                                               ; preds = %29, %8
  %.pre-phi = phi i64 [ %.pre94, %29 ], [ %6, %8 ]
  %.047 = phi ptr [ %32, %29 ], [ %1, %8 ]
  %.045 = phi i64 [ %31, %29 ], [ %2, %8 ]
  store i64 %.pre-phi, ptr %4, align 8, !tbaa !27
  %34 = icmp ugt i64 %.045, 15
  br i1 %34, label %.lr.ph80, label %._crit_edge

.lr.ph80:                                         ; preds = %33
  %35 = getelementptr inbounds nuw i8, ptr %0, i64 400
  %36 = getelementptr inbounds nuw i8, ptr %0, i64 408
  br label %mbedtls_xor.exit59.critedge

mbedtls_xor.exit59.critedge:                      ; preds = %.lr.ph80, %mbedtls_xor.exit59.critedge
  %.179 = phi i64 [ %.045, %.lr.ph80 ], [ %40, %mbedtls_xor.exit59.critedge ]
  %.14878 = phi ptr [ %.047, %.lr.ph80 ], [ %41, %mbedtls_xor.exit59.critedge ]
  %.0.copyload.i66 = load i64, ptr %35, align 1
  %.0.copyload.i65 = load i64, ptr %.14878, align 1
  %37 = xor i64 %.0.copyload.i65, %.0.copyload.i66
  store i64 %37, ptr %35, align 1
  %.0.copyload.i66.c = load i64, ptr %36, align 1
  %38 = getelementptr inbounds nuw i8, ptr %.14878, i64 8
  %.0.copyload.i65.c = load i64, ptr %38, align 1
  %39 = xor i64 %.0.copyload.i65.c, %.0.copyload.i66.c
  store i64 %39, ptr %36, align 1
  tail call fastcc void @gcm_mult(ptr noundef nonnull %0, ptr noundef nonnull %35, ptr noundef nonnull %35)
  %40 = add i64 %.179, -16
  %41 = getelementptr inbounds nuw i8, ptr %.14878, i64 16
  %42 = icmp ugt i64 %40, 15
  br i1 %42, label %mbedtls_xor.exit59.critedge, label %._crit_edge, !llvm.loop !28

._crit_edge:                                      ; preds = %mbedtls_xor.exit59.critedge, %33
  %.148.lcssa = phi ptr [ %.047, %33 ], [ %41, %mbedtls_xor.exit59.critedge ]
  %.1.lcssa = phi i64 [ %.045, %33 ], [ %40, %mbedtls_xor.exit59.critedge ]
  %.not55 = icmp eq i64 %.1.lcssa, 0
  br i1 %.not55, label %mbedtls_xor.exit, label %43

43:                                               ; preds = %._crit_edge
  %44 = getelementptr inbounds nuw i8, ptr %0, i64 400
  %.not.i83 = icmp samesign ult i64 %.1.lcssa, 8
  br i1 %.not.i83, label %.preheader, label %.lr.ph86

.preheader:                                       ; preds = %.lr.ph86, %43
  %.0.i.lcssa = phi i64 [ 0, %43 ], [ %46, %.lr.ph86 ]
  %45 = icmp samesign ult i64 %.0.i.lcssa, %.1.lcssa
  br i1 %45, label %.lr.ph89, label %mbedtls_xor.exit

.lr.ph86:                                         ; preds = %43, %.lr.ph86
  %46 = phi i64 [ %50, %.lr.ph86 ], [ 8, %43 ]
  %.0.i84 = phi i64 [ %46, %.lr.ph86 ], [ 0, %43 ]
  %47 = getelementptr inbounds nuw i8, ptr %44, i64 %.0.i84
  %.0.copyload.i68 = load i64, ptr %47, align 1
  %48 = getelementptr inbounds nuw i8, ptr %.148.lcssa, i64 %.0.i84
  %.0.copyload.i67 = load i64, ptr %48, align 1
  %49 = xor i64 %.0.copyload.i67, %.0.copyload.i68
  store i64 %49, ptr %47, align 1
  %50 = add nuw nsw i64 %46, 8
  %.not.i = icmp samesign ugt i64 %50, %.1.lcssa
  br i1 %.not.i, label %.preheader, label %.lr.ph86, !llvm.loop !21

.lr.ph89:                                         ; preds = %.preheader, %.lr.ph89
  %.1.i88 = phi i64 [ %56, %.lr.ph89 ], [ %.0.i.lcssa, %.preheader ]
  %51 = getelementptr inbounds nuw i8, ptr %44, i64 %.1.i88
  %52 = load i8, ptr %51, align 1, !tbaa !14
  %53 = getelementptr inbounds nuw i8, ptr %.148.lcssa, i64 %.1.i88
  %54 = load i8, ptr %53, align 1, !tbaa !14
  %55 = xor i8 %54, %52
  store i8 %55, ptr %51, align 1, !tbaa !14
  %56 = add nuw i64 %.1.i88, 1
  %exitcond93.not = icmp eq i64 %56, %.1.lcssa
  br i1 %exitcond93.not, label %mbedtls_xor.exit, label %.lr.ph89, !llvm.loop !22

mbedtls_xor.exit:                                 ; preds = %.lr.ph89, %.preheader, %._crit_edge, %3
  %.0 = phi i32 [ -20, %3 ], [ 0, %._crit_edge ], [ 0, %.preheader ], [ 0, %.lr.ph89 ]
  ret i32 %.0
}